target datalayout = "e-m:e-p270:32:32-p271:32:32-p272:64:64-i64:64-i128:128-f80:128-n8:16:32:64-S128"
target triple = "x86_64-pc-linux-gnu"

%struct.lean_object = type { i32, i32 }
%struct.lean_ctor_object = type { %struct.lean_object, [0 x ptr] }

@l_Lean_Elab_Tactic_BVDecide_Frontend_Normalize_VarStateM_computeCoefficients_go___closed__4 = internal global ptr null, align 8
@l_Lean_Elab_Tactic_BVDecide_Frontend_Normalize_bvAcNfpost___lambda__2___closed__7 = internal global ptr null, align 8

; Function Attrs: inlinehint nounwind uwtable
define internal zeroext i1 @lean_is_st(ptr noundef %0) #0 {
  %2 = alloca ptr, align 8
  store ptr %0, ptr %2, align 8, !tbaa !4
  %3 = load ptr, ptr %2, align 8, !tbaa !4
  %4 = getelementptr inbounds nuw %struct.lean_object, ptr %3, i32 0, i32 0
  %5 = load i32, ptr %4, align 4, !tbaa !19
  %6 = icmp sgt i32 %5, 0
  ret i1 %6
}

; Function Attrs: inlinehint nounwind uwtable
define internal ptr @lean_to_ctor(ptr noundef %0) #0 {
  %2 = alloca ptr, align 8
  store ptr %0, ptr %2, align 8, !tbaa !4
  %3 = load ptr, ptr %2, align 8, !tbaa !4
  ret ptr %3
}

; Function Attrs: alwaysinline nounwind uwtable
define internal void @lean_dec_ref(ptr noundef %0) #1 {
  %2 = alloca ptr, align 8
  store ptr %0, ptr %2, align 8, !tbaa !4
  %3 = load ptr, ptr %2, align 8, !tbaa !4
  %4 = getelementptr inbounds nuw %struct.lean_object, ptr %3, i32 0, i32 0
  %5 = load i32, ptr %4, align 4, !tbaa !19
  %6 = icmp sgt i32 %5, 1
  %7 = zext i1 %6 to i32
  %8 = sext i32 %7 to i64
  %9 = call i64 @llvm.expect.i64(i64 %8, i64 1)
  %10 = icmp ne i64 %9, 0
  br i1 %10, label %11, label %16

11:                                               ; preds = %1
  %12 = load ptr, ptr %2, align 8, !tbaa !4
  %13 = getelementptr inbounds nuw %struct.lean_object, ptr %12, i32 0, i32 0
  %14 = load i32, ptr %13, align 4, !tbaa !19
  %15 = add i32 %14, -1
  store i32 %15, ptr %13, align 4, !tbaa !19
  br label %24

16:                                               ; preds = %1
  %17 = load ptr, ptr %2, align 8, !tbaa !4
  %18 = getelementptr inbounds nuw %struct.lean_object, ptr %17, i32 0, i32 0
  %19 = load i32, ptr %18, align 4, !tbaa !19
  %20 = icmp ne i32 %19, 0
  br i1 %20, label %21, label %23

21:                                               ; preds = %16
  %22 = load ptr, ptr %2, align 8, !tbaa !4
  call void @lean_dec_ref_cold(ptr noundef %22)
  br label %23

23:                                               ; preds = %21, %16
  br label %24

24:                                               ; preds = %23, %11
  ret void
}

; Function Attrs: inlinehint nounwind uwtable
define internal void @lean_inc_ref(ptr noundef %0) #0 {
  %2 = alloca ptr, align 8
  store ptr %0, ptr %2, align 8, !tbaa !4
  %3 = load ptr, ptr %2, align 8, !tbaa !4
  %4 = call zeroext i1 @lean_is_st(ptr noundef %3)
  %5 = zext i1 %4 to i64
  %6 = call i64 @llvm.expect.i64(i64 %5, i64 1)
  %7 = icmp ne i64 %6, 0
  br i1 %7, label %8, label %13

8:                                                ; preds = %1
  %9 = load ptr, ptr %2, align 8, !tbaa !4
  %10 = getelementptr inbounds nuw %struct.lean_object, ptr %9, i32 0, i32 0
  %11 = load i32, ptr %10, align 4, !tbaa !19
  %12 = add i32 %11, 1
  store i32 %12, ptr %10, align 4, !tbaa !19
  br label %21

13:                                               ; preds = %1
  %14 = load ptr, ptr %2, align 8, !tbaa !4
  %15 = getelementptr inbounds nuw %struct.lean_object, ptr %14, i32 0, i32 0
  %16 = load i32, ptr %15, align 4, !tbaa !19
  %17 = icmp ne i32 %16, 0
  br i1 %17, label %18, label %20

18:                                               ; preds = %13
  %19 = load ptr, ptr %2, align 8, !tbaa !4
  call void @lean_inc_ref_cold(ptr noundef %19)
  br label %20

20:                                               ; preds = %18, %13
  br label %21

21:                                               ; preds = %20, %8
  ret void
}

; Function Attrs: alwaysinline nounwind uwtable
define internal zeroext i1 @lean_is_scalar(ptr noundef %0) #1 {
  %2 = alloca ptr, align 8
  store ptr %0, ptr %2, align 8, !tbaa !4
  %3 = load ptr, ptr %2, align 8, !tbaa !4
  %4 = ptrtoint ptr %3 to i64
  %5 = and i64 %4, 1
  %6 = icmp eq i64 %5, 1
  ret i1 %6
}

; Function Attrs: inlinehint nounwind uwtable
define internal ptr @lean_ctor_obj_cptr(ptr noundef %0) #0 {
  %2 = alloca ptr, align 8
  store ptr %0, ptr %2, align 8, !tbaa !4
  %3 = load ptr, ptr %2, align 8, !tbaa !4
  %4 = call ptr @lean_to_ctor(ptr noundef %3)
  %5 = getelementptr inbounds nuw %struct.lean_ctor_object, ptr %4, i32 0, i32 1
  %6 = getelementptr inbounds [0 x ptr], ptr %5, i64 0, i64 0
  ret ptr %6
}

; Function Attrs: inlinehint nounwind uwtable
define internal ptr @lean_box(i64 noundef %0) #0 {
  %2 = alloca i64, align 8
  store i64 %0, ptr %2, align 8, !tbaa !10
  %3 = load i64, ptr %2, align 8, !tbaa !10
  %4 = shl i64 %3, 1
  %5 = or i64 %4, 1
  %6 = inttoptr i64 %5 to ptr
  ret ptr %6
}

; Function Attrs: alwaysinline nounwind uwtable
define internal void @lean_dec(ptr noundef %0) #1 {
  %2 = alloca ptr, align 8
  store ptr %0, ptr %2, align 8, !tbaa !4
  %3 = load ptr, ptr %2, align 8, !tbaa !4
  %4 = call zeroext i1 @lean_is_scalar(ptr noundef %3)
  br i1 %4, label %7, label %5

5:                                                ; preds = %1
  %6 = load ptr, ptr %2, align 8, !tbaa !4
  call void @lean_dec_ref(ptr noundef %6)
  br label %7

7:                                                ; preds = %5, %1
  ret void
}

; Function Attrs: inlinehint nounwind uwtable
define internal i64 @lean_unbox(ptr noundef %0) #0 {
  %2 = alloca ptr, align 8
  store ptr %0, ptr %2, align 8, !tbaa !4
  %3 = load ptr, ptr %2, align 8, !tbaa !4
  %4 = ptrtoint ptr %3 to i64
  %5 = lshr i64 %4, 1
  ret i64 %5
}

; Function Attrs: alwaysinline nounwind uwtable
define internal void @lean_inc(ptr noundef %0) #1 {
  %2 = alloca ptr, align 8
  store ptr %0, ptr %2, align 8, !tbaa !4
  %3 = load ptr, ptr %2, align 8, !tbaa !4
  %4 = call zeroext i1 @lean_is_scalar(ptr noundef %3)
  br i1 %4, label %7, label %5

5:                                                ; preds = %1
  %6 = load ptr, ptr %2, align 8, !tbaa !4
  call void @lean_inc_ref(ptr noundef %6)
  br label %7

7:                                                ; preds = %5, %1
  ret void
}

; Function Attrs: inlinehint nounwind uwtable
define internal ptr @lean_ctor_get(ptr noundef %0, i32 noundef %1) #0 {
  %3 = alloca ptr, align 8
  %4 = alloca i32, align 4
  store ptr %0, ptr %3, align 8, !tbaa !4
  store i32 %1, ptr %4, align 4, !tbaa !15
  %5 = load ptr, ptr %3, align 8, !tbaa !4
  %6 = call ptr @lean_ctor_obj_cptr(ptr noundef %5)
  %7 = load i32, ptr %4, align 4, !tbaa !15
  %8 = zext i32 %7 to i64
  %9 = getelementptr inbounds nuw ptr, ptr %6, i64 %8
  %10 = load ptr, ptr %9, align 8, !tbaa !4
  ret ptr %10
}

; Function Attrs: nounwind uwtable
define ptr @l_Lean_Elab_Tactic_BVDecide_Frontend_Normalize_bvAcNfpost___lambda__2(ptr noundef %0, ptr noundef %1, ptr noundef %2, ptr noundef %3, ptr noundef %4, ptr noundef %5, ptr noundef %6, ptr noundef %7, ptr noundef %8, ptr noundef %9, ptr noundef %10) #2 {
  %12 = alloca ptr, align 8
  %13 = alloca ptr, align 8
  %14 = alloca ptr, align 8
  %15 = alloca ptr, align 8
  %16 = alloca ptr, align 8
  %17 = alloca ptr, align 8
  %18 = alloca ptr, align 8
  %19 = alloca ptr, align 8
  %20 = alloca ptr, align 8
  %21 = alloca ptr, align 8
  %22 = alloca ptr, align 8
  %23 = alloca ptr, align 8
  %24 = alloca ptr, align 8
  %25 = alloca ptr, align 8
  %26 = alloca ptr, align 8
  %27 = alloca i8, align 1
  %28 = alloca ptr, align 8
  %29 = alloca ptr, align 8
  %30 = alloca ptr, align 8
  %31 = alloca i32, align 4
  %32 = alloca ptr, align 8
  %33 = alloca ptr, align 8
  %34 = alloca ptr, align 8
  %35 = alloca ptr, align 8
  %36 = alloca ptr, align 8
  %37 = alloca ptr, align 8
  store ptr %0, ptr %13, align 8, !tbaa !4
  store ptr %1, ptr %14, align 8, !tbaa !4
  store ptr %2, ptr %15, align 8, !tbaa !4
  store ptr %3, ptr %16, align 8, !tbaa !4
  store ptr %4, ptr %17, align 8, !tbaa !4
  store ptr %5, ptr %18, align 8, !tbaa !4
  store ptr %6, ptr %19, align 8, !tbaa !4
  store ptr %7, ptr %20, align 8, !tbaa !4
  store ptr %8, ptr %21, align 8, !tbaa !4
  store ptr %9, ptr %22, align 8, !tbaa !4
  store ptr %10, ptr %23, align 8, !tbaa !4
  br label %38

38:                                               ; preds = %11
  call void @llvm.lifetime.start.p0(i64 8, ptr %24) #8
  call void @llvm.lifetime.start.p0(i64 8, ptr %25) #8
  call void @llvm.lifetime.start.p0(i64 8, ptr %26) #8
  call void @llvm.lifetime.start.p0(i64 1, ptr %27) #8
  %39 = load ptr, ptr @l_Lean_Elab_Tactic_BVDecide_Frontend_Normalize_VarStateM_computeCoefficients_go___closed__4, align 8, !tbaa !4
  store ptr %39, ptr %24, align 8, !tbaa !4
  %40 = load ptr, ptr %24, align 8, !tbaa !4
  %41 = load ptr, ptr %16, align 8, !tbaa !4
  %42 = load ptr, ptr %17, align 8, !tbaa !4
  %43 = load ptr, ptr %18, align 8, !tbaa !4
  %44 = load ptr, ptr %19, align 8, !tbaa !4
  %45 = load ptr, ptr %20, align 8, !tbaa !4
  %46 = load ptr, ptr %21, align 8, !tbaa !4
  %47 = load ptr, ptr %22, align 8, !tbaa !4
  %48 = load ptr, ptr %23, align 8, !tbaa !4
  %49 = call ptr @l_Lean_isTracingEnabledFor___at_Lean_Meta_Simp_congrArgs___spec__1(ptr noundef %40, ptr noundef %41, ptr noundef %42, ptr noundef %43, ptr noundef %44, ptr noundef %45, ptr noundef %46, ptr noundef %47, ptr noundef %48)
  store ptr %49, ptr %25, align 8, !tbaa !4
  %50 = load ptr, ptr %25, align 8, !tbaa !4
  %51 = call ptr @lean_ctor_get(ptr noundef %50, i32 noundef 0)
  store ptr %51, ptr %26, align 8, !tbaa !4
  %52 = load ptr, ptr %26, align 8, !tbaa !4
  call void @lean_inc(ptr noundef %52)
  %53 = load ptr, ptr %26, align 8, !tbaa !4
  %54 = call i64 @lean_unbox(ptr noundef %53)
  %55 = trunc i64 %54 to i8
  store i8 %55, ptr %27, align 1, !tbaa !14
  %56 = load ptr, ptr %26, align 8, !tbaa !4
  call void @lean_dec(ptr noundef %56)
  %57 = load i8, ptr %27, align 1, !tbaa !14
  %58 = zext i8 %57 to i32
  %59 = icmp eq i32 %58, 0
  br i1 %59, label %60, label %80

60:                                               ; preds = %38
  call void @llvm.lifetime.start.p0(i64 8, ptr %28) #8
  call void @llvm.lifetime.start.p0(i64 8, ptr %29) #8
  call void @llvm.lifetime.start.p0(i64 8, ptr %30) #8
  %61 = load ptr, ptr %25, align 8, !tbaa !4
  %62 = call ptr @lean_ctor_get(ptr noundef %61, i32 noundef 1)
  store ptr %62, ptr %28, align 8, !tbaa !4
  %63 = load ptr, ptr %28, align 8, !tbaa !4
  call void @lean_inc(ptr noundef %63)
  %64 = load ptr, ptr %25, align 8, !tbaa !4
  call void @lean_dec(ptr noundef %64)
  %65 = call ptr @lean_box(i64 noundef 0)
  store ptr %65, ptr %29, align 8, !tbaa !4
  %66 = load ptr, ptr %13, align 8, !tbaa !4
  %67 = load ptr, ptr %14, align 8, !tbaa !4
  %68 = load ptr, ptr %15, align 8, !tbaa !4
  %69 = load ptr, ptr %29, align 8, !tbaa !4
  %70 = load ptr, ptr %16, align 8, !tbaa !4
  %71 = load ptr, ptr %17, align 8, !tbaa !4
  %72 = load ptr, ptr %18, align 8, !tbaa !4
  %73 = load ptr, ptr %19, align 8, !tbaa !4
  %74 = load ptr, ptr %20, align 8, !tbaa !4
  %75 = load ptr, ptr %21, align 8, !tbaa !4
  %76 = load ptr, ptr %22, align 8, !tbaa !4
  %77 = load ptr, ptr %28, align 8, !tbaa !4
  %78 = call ptr @l_Lean_Elab_Tactic_BVDecide_Frontend_Normalize_bvAcNfpost___lambda__1(ptr noundef %66, ptr noundef %67, ptr noundef %68, ptr noundef %69, ptr noundef %70, ptr noundef %71, ptr noundef %72, ptr noundef %73, ptr noundef %74, ptr noundef %75, ptr noundef %76, ptr noundef %77)
  store ptr %78, ptr %30, align 8, !tbaa !4
  %79 = load ptr, ptr %30, align 8, !tbaa !4
  store ptr %79, ptr %12, align 8
  store i32 1, ptr %31, align 4
  call void @llvm.lifetime.end.p0(i64 8, ptr %30) #8
  call void @llvm.lifetime.end.p0(i64 8, ptr %29) #8
  call void @llvm.lifetime.end.p0(i64 8, ptr %28) #8
  br label %119

80:                                               ; preds = %38
  call void @llvm.lifetime.start.p0(i64 8, ptr %32) #8
  call void @llvm.lifetime.start.p0(i64 8, ptr %33) #8
  call void @llvm.lifetime.start.p0(i64 8, ptr %34) #8
  call void @llvm.lifetime.start.p0(i64 8, ptr %35) #8
  call void @llvm.lifetime.start.p0(i64 8, ptr %36) #8
  call void @llvm.lifetime.start.p0(i64 8, ptr %37) #8
  %81 = load ptr, ptr %25, align 8, !tbaa !4
  %82 = call ptr @lean_ctor_get(ptr noundef %81, i32 noundef 1)
  store ptr %82, ptr %32, align 8, !tbaa !4
  %83 = load ptr, ptr %32, align 8, !tbaa !4
  call void @lean_inc(ptr noundef %83)
  %84 = load ptr, ptr %25, align 8, !tbaa !4
  call void @lean_dec(ptr noundef %84)
  %85 = load ptr, ptr @l_Lean_Elab_Tactic_BVDecide_Frontend_Normalize_bvAcNfpost___lambda__2___closed__7, align 8, !tbaa !4
  store ptr %85, ptr %33, align 8, !tbaa !4
  %86 = load ptr, ptr %24, align 8, !tbaa !4
  %87 = load ptr, ptr %33, align 8, !tbaa !4
  %88 = load ptr, ptr %16, align 8, !tbaa !4
  %89 = load ptr, ptr %17, align 8, !tbaa !4
  %90 = load ptr, ptr %18, align 8, !tbaa !4
  %91 = load ptr, ptr %19, align 8, !tbaa !4
  %92 = load ptr, ptr %20, align 8, !tbaa !4
  %93 = load ptr, ptr %21, align 8, !tbaa !4
  %94 = load ptr, ptr %22, align 8, !tbaa !4
  %95 = load ptr, ptr %32, align 8, !tbaa !4
  %96 = call ptr @l_Lean_addTrace___at_Lean_Meta_Simp_congrArgs___spec__2(ptr noundef %86, ptr noundef %87, ptr noundef %88, ptr noundef %89, ptr noundef %90, ptr noundef %91, ptr noundef %92, ptr noundef %93, ptr noundef %94, ptr noundef %95)
  store ptr %96, ptr %34, align 8, !tbaa !4
  %97 = load ptr, ptr %34, align 8, !tbaa !4
  %98 = call ptr @lean_ctor_get(ptr noundef %97, i32 noundef 0)
  store ptr %98, ptr %35, align 8, !tbaa !4
  %99 = load ptr, ptr %35, align 8, !tbaa !4
  call void @lean_inc(ptr noundef %99)
  %100 = load ptr, ptr %34, align 8, !tbaa !4
  %101 = call ptr @lean_ctor_get(ptr noundef %100, i32 noundef 1)
  store ptr %101, ptr %36, align 8, !tbaa !4
  %102 = load ptr, ptr %36, align 8, !tbaa !4
  call void @lean_inc(ptr noundef %102)
  %103 = load ptr, ptr %34, align 8, !tbaa !4
  call void @lean_dec(ptr noundef %103)
  %104 = load ptr, ptr %13, align 8, !tbaa !4
  %105 = load ptr, ptr %14, align 8, !tbaa !4
  %106 = load ptr, ptr %15, align 8, !tbaa !4
  %107 = load ptr, ptr %35, align 8, !tbaa !4
  %108 = load ptr, ptr %16, align 8, !tbaa !4
  %109 = load ptr, ptr %17, align 8, !tbaa !4
  %110 = load ptr, ptr %18, align 8, !tbaa !4
  %111 = load ptr, ptr %19, align 8, !tbaa !4
  %112 = load ptr, ptr %20, align 8, !tbaa !4
  %113 = load ptr, ptr %21, align 8, !tbaa !4
  %114 = load ptr, ptr %22, align 8, !tbaa !4
  %115 = load ptr, ptr %36, align 8, !tbaa !4
  %116 = call ptr @l_Lean_Elab_Tactic_BVDecide_Frontend_Normalize_bvAcNfpost___lambda__1(ptr noundef %104, ptr noundef %105, ptr noundef %106, ptr noundef %107, ptr noundef %108, ptr noundef %109, ptr noundef %110, ptr noundef %111, ptr noundef %112, ptr noundef %113, ptr noundef %114, ptr noundef %115)
  store ptr %116, ptr %37, align 8, !tbaa !4
  %117 = load ptr, ptr %35, align 8, !tbaa !4
  call void @lean_dec(ptr noundef %117)
  %118 = load ptr, ptr %37, align 8, !tbaa !4
  store ptr %118, ptr %12, align 8
  store i32 1, ptr %31, align 4
  call void @llvm.lifetime.end.p0(i64 8, ptr %37) #8
  call void @llvm.lifetime.end.p0(i64 8, ptr %36) #8
  call void @llvm.lifetime.end.p0(i64 8, ptr %35) #8
  call void @llvm.lifetime.end.p0(i64 8, ptr %34) #8
  call void @llvm.lifetime.end.p0(i64 8, ptr %33) #8
  call void @llvm.lifetime.end.p0(i64 8, ptr %32) #8
  br label %119

119:                                              ; preds = %80, %60
  call void @llvm.lifetime.end.p0(i64 1, ptr %27) #8
  call void @llvm.lifetime.end.p0(i64 8, ptr %26) #8
  call void @llvm.lifetime.end.p0(i64 8, ptr %25) #8
  call void @llvm.lifetime.end.p0(i64 8, ptr %24) #8
  %120 = load ptr, ptr %12, align 8
  ret ptr %120
}