; Function Attrs: nounwind uwtable
define ptr @l_Lean_Elab_Tactic_BVDecide_Frontend_Normalize_bvAcNfpost___lambda__2(ptr noundef %0, ptr noundef %1, ptr noundef %2, ptr noundef %3, ptr noundef %4, ptr noundef %5, ptr noundef %6, ptr noundef %7, ptr noundef %8, ptr noundef %9, ptr noundef %10) #0 {
  %12 = load ptr, ptr @l_Lean_Elab_Tactic_BVDecide_Frontend_Normalize_VarStateM_computeCoefficients_go___closed__4, align 8, !tbaa !4
  %13 = tail call ptr @l_Lean_isTracingEnabledFor___at_Lean_Meta_Simp_congrArgs___spec__1(ptr noundef %12, ptr noundef %3, ptr noundef %4, ptr noundef %5, ptr noundef %6, ptr noundef %7, ptr noundef %8, ptr noundef %9, ptr noundef %10) #5
  %14 = getelementptr inbounds nuw i8, ptr %13, i64 8
  %15 = load ptr, ptr %14, align 8, !tbaa !4
  %16 = ptrtoint ptr %15 to i64
  %17 = and i64 %16, 1
  %.not = icmp eq i64 %17, 0
  br i1 %.not, label %18, label %lean_dec.exit69

18:                                               ; preds = %11
  %.val.i = load i32, ptr %15, align 4, !tbaa !8
  %19 = icmp sgt i32 %.val.i, 0
  br i1 %19, label %20, label %22, !prof !11

20:                                               ; preds = %18
  %21 = add nuw i32 %.val.i, 1
  store i32 %21, ptr %15, align 4, !tbaa !8
  br label %24

22:                                               ; preds = %18
  %.not.i78 = icmp eq i32 %.val.i, 0
  br i1 %.not.i78, label %lean_dec.exit69, label %23

23:                                               ; preds = %22
  tail call void @lean_inc_ref_cold(ptr noundef nonnull %15) #5
  %.pr = load i32, ptr %15, align 4, !tbaa !8
  br label %24

24:                                               ; preds = %23, %20
  %25 = phi i32 [ %.pr, %23 ], [ %21, %20 ]
  %26 = icmp sgt i32 %25, 1
  br i1 %26, label %27, label %29, !prof !20

27:                                               ; preds = %24
  %28 = add nsw i32 %25, -1
  store i32 %28, ptr %15, align 4, !tbaa !8
  br label %lean_dec.exit69

29:                                               ; preds = %24
  %.not.i = icmp eq i32 %25, 0
  br i1 %.not.i, label %lean_dec.exit69, label %30

30:                                               ; preds = %29
  tail call void @lean_dec_ref_cold(ptr noundef nonnull %15) #5
  br label %lean_dec.exit69

lean_dec.exit69:                                  ; preds = %11, %22, %30, %29, %27
  %31 = and i64 %16, 510
  %32 = icmp eq i64 %31, 0
  %33 = getelementptr inbounds nuw i8, ptr %13, i64 16
  %34 = load ptr, ptr %33, align 8, !tbaa !4
  %35 = ptrtoint ptr %34 to i64
  %36 = and i64 %35, 1
  %.not98 = icmp eq i64 %36, 0
  br i1 %32, label %37, label %54

37:                                               ; preds = %lean_dec.exit69
  br i1 %.not98, label %38, label %lean_inc.exit64

38:                                               ; preds = %37
  %.val.i79 = load i32, ptr %34, align 4, !tbaa !8
  %39 = icmp sgt i32 %.val.i79, 0
  br i1 %39, label %40, label %42, !prof !11

40:                                               ; preds = %38
  %41 = add nuw i32 %.val.i79, 1
  store i32 %41, ptr %34, align 4, !tbaa !8
  br label %lean_inc.exit64

42:                                               ; preds = %38
  %.not.i80 = icmp eq i32 %.val.i79, 0
  br i1 %.not.i80, label %lean_inc.exit64, label %43

43:                                               ; preds = %42
  tail call void @lean_inc_ref_cold(ptr noundef nonnull %34) #5
  br label %lean_inc.exit64

lean_inc.exit64:                                  ; preds = %43, %42, %40, %37
  %44 = ptrtoint ptr %13 to i64
  %45 = and i64 %44, 1
  %.not99 = icmp eq i64 %45, 0
  br i1 %.not99, label %46, label %lean_dec.exit68

46:                                               ; preds = %lean_inc.exit64
  %47 = load i32, ptr %13, align 4, !tbaa !8
  %48 = icmp sgt i32 %47, 1
  br i1 %48, label %49, label %51, !prof !11

49:                                               ; preds = %46
  %50 = add nsw i32 %47, -1
  store i32 %50, ptr %13, align 4, !tbaa !8
  br label %lean_dec.exit68

51:                                               ; preds = %46
  %.not.i70 = icmp eq i32 %47, 0
  br i1 %.not.i70, label %lean_dec.exit68, label %52

52:                                               ; preds = %51
  tail call void @lean_dec_ref_cold(ptr noundef nonnull %13) #5
  br label %lean_dec.exit68

lean_dec.exit68:                                  ; preds = %52, %51, %49, %lean_inc.exit64
  %53 = tail call ptr @l_Lean_Elab_Tactic_BVDecide_Frontend_Normalize_bvAcNfpost___lambda__1(ptr noundef %0, ptr noundef %1, ptr noundef %2, ptr nonnull poison, ptr noundef %3, ptr noundef %4, ptr noundef %5, ptr noundef %6, ptr noundef %7, ptr noundef %8, ptr noundef %9, ptr noundef %34)
  br label %lean_dec.exit

54:                                               ; preds = %lean_dec.exit69
  br i1 %.not98, label %55, label %lean_inc.exit63

55:                                               ; preds = %54
  %.val.i82 = load i32, ptr %34, align 4, !tbaa !8
  %56 = icmp sgt i32 %.val.i82, 0
  br i1 %56, label %57, label %59, !prof !11

57:                                               ; preds = %55
  %58 = add nuw i32 %.val.i82, 1
  store i32 %58, ptr %34, align 4, !tbaa !8
  br label %lean_inc.exit63

59:                                               ; preds = %55
  %.not.i83 = icmp eq i32 %.val.i82, 0
  br i1 %.not.i83, label %lean_inc.exit63, label %60

60:                                               ; preds = %59
  tail call void @lean_inc_ref_cold(ptr noundef nonnull %34) #5
  br label %lean_inc.exit63

lean_inc.exit63:                                  ; preds = %60, %59, %57, %54
  %61 = ptrtoint ptr %13 to i64
  %62 = and i64 %61, 1
  %.not94 = icmp eq i64 %62, 0
  br i1 %.not94, label %63, label %lean_dec.exit67

63:                                               ; preds = %lean_inc.exit63
  %64 = load i32, ptr %13, align 4, !tbaa !8
  %65 = icmp sgt i32 %64, 1
  br i1 %65, label %66, label %68, !prof !11

66:                                               ; preds = %63
  %67 = add nsw i32 %64, -1
  store i32 %67, ptr %13, align 4, !tbaa !8
  br label %lean_dec.exit67

68:                                               ; preds = %63
  %.not.i72 = icmp eq i32 %64, 0
  br i1 %.not.i72, label %lean_dec.exit67, label %69

69:                                               ; preds = %68
  tail call void @lean_dec_ref_cold(ptr noundef nonnull %13) #5
  br label %lean_dec.exit67

lean_dec.exit67:                                  ; preds = %69, %68, %66, %lean_inc.exit63
  %70 = load ptr, ptr @l_Lean_Elab_Tactic_BVDecide_Frontend_Normalize_bvAcNfpost___lambda__2___closed__7, align 8, !tbaa !4
  %71 = tail call ptr @l_Lean_addTrace___at_Lean_Meta_Simp_congrArgs___spec__2(ptr noundef %12, ptr noundef %70, ptr noundef %3, ptr noundef %4, ptr noundef %5, ptr noundef %6, ptr noundef %7, ptr noundef %8, ptr noundef %9, ptr noundef %34) #5
  %72 = getelementptr inbounds nuw i8, ptr %71, i64 8
  %73 = load ptr, ptr %72, align 8, !tbaa !4
  %74 = ptrtoint ptr %73 to i64
  %75 = and i64 %74, 1
  %.not95 = icmp eq i64 %75, 0
  br i1 %.not95, label %76, label %lean_inc.exit62

76:                                               ; preds = %lean_dec.exit67
  %.val.i85 = load i32, ptr %73, align 4, !tbaa !8
  %77 = icmp sgt i32 %.val.i85, 0
  br i1 %77, label %78, label %80, !prof !11

78:                                               ; preds = %76
  %79 = add nuw i32 %.val.i85, 1
  store i32 %79, ptr %73, align 4, !tbaa !8
  br label %lean_inc.exit62

80:                                               ; preds = %76
  %.not.i86 = icmp eq i32 %.val.i85, 0
  br i1 %.not.i86, label %lean_inc.exit62, label %81

81:                                               ; preds = %80
  tail call void @lean_inc_ref_cold(ptr noundef nonnull %73) #5
  br label %lean_inc.exit62

lean_inc.exit62:                                  ; preds = %81, %80, %78, %lean_dec.exit67
  %82 = getelementptr inbounds nuw i8, ptr %71, i64 16
  %83 = load ptr, ptr %82, align 8, !tbaa !4
  %84 = ptrtoint ptr %83 to i64
  %85 = and i64 %84, 1
  %.not96 = icmp eq i64 %85, 0
  br i1 %.not96, label %86, label %lean_inc.exit

86:                                               ; preds = %lean_inc.exit62
  %.val.i88 = load i32, ptr %83, align 4, !tbaa !8
  %87 = icmp sgt i32 %.val.i88, 0
  br i1 %87, label %88, label %90, !prof !11

88:                                               ; preds = %86
  %89 = add nuw i32 %.val.i88, 1
  store i32 %89, ptr %83, align 4, !tbaa !8
  br label %lean_inc.exit

90:                                               ; preds = %86
  %.not.i89 = icmp eq i32 %.val.i88, 0
  br i1 %.not.i89, label %lean_inc.exit, label %91

91:                                               ; preds = %90
  tail call void @lean_inc_ref_cold(ptr noundef nonnull %83) #5
  br label %lean_inc.exit

lean_inc.exit:                                    ; preds = %91, %90, %88, %lean_inc.exit62
  %92 = ptrtoint ptr %71 to i64
  %93 = and i64 %92, 1
  %.not97 = icmp eq i64 %93, 0
  br i1 %.not97, label %94, label %lean_dec.exit66

94:                                               ; preds = %lean_inc.exit
  %95 = load i32, ptr %71, align 4, !tbaa !8
  %96 = icmp sgt i32 %95, 1
  br i1 %96, label %97, label %99, !prof !11

97:                                               ; preds = %94
  %98 = add nsw i32 %95, -1
  store i32 %98, ptr %71, align 4, !tbaa !8
  br label %lean_dec.exit66

99:                                               ; preds = %94
  %.not.i74 = icmp eq i32 %95, 0
  br i1 %.not.i74, label %lean_dec.exit66, label %100

100:                                              ; preds = %99
  tail call void @lean_dec_ref_cold(ptr noundef nonnull %71) #5
  br label %lean_dec.exit66

lean_dec.exit66:                                  ; preds = %100, %99, %97, %lean_inc.exit
  %101 = tail call ptr @l_Lean_Elab_Tactic_BVDecide_Frontend_Normalize_bvAcNfpost___lambda__1(ptr noundef %0, ptr noundef %1, ptr noundef %2, ptr poison, ptr noundef %3, ptr noundef %4, ptr noundef %5, ptr noundef %6, ptr noundef %7, ptr noundef %8, ptr noundef %9, ptr noundef %83)
  br i1 %.not95, label %102, label %lean_dec.exit

102:                                              ; preds = %lean_dec.exit66
  %103 = load i32, ptr %73, align 4, !tbaa !8
  %104 = icmp sgt i32 %103, 1
  br i1 %104, label %105, label %107, !prof !11

105:                                              ; preds = %102
  %106 = add nsw i32 %103, -1
  store i32 %106, ptr %73, align 4, !tbaa !8
  br label %lean_dec.exit

107:                                              ; preds = %102
  %.not.i76 = icmp eq i32 %103, 0
  br i1 %.not.i76, label %lean_dec.exit, label %108

108:                                              ; preds = %107
  tail call void @lean_dec_ref_cold(ptr noundef nonnull %73) #5
  br label %lean_dec.exit

lean_dec.exit:                                    ; preds = %lean_dec.exit66, %105, %107, %108, %lean_dec.exit68
  %.0 = phi ptr [ %53, %lean_dec.exit68 ], [ %101, %108 ], [ %101, %107 ], [ %101, %105 ], [ %101, %lean_dec.exit66 ]
  ret ptr %.0
}